target datalayout = "e-m:e-p270:32:32-p271:32:32-p272:64:64-i64:64-i128:128-f80:128-n8:16:32:64-S128"
target triple = "x86_64-pc-linux-gnu"

%"class.open_spiel::battleship::CellAndDirection" = type { i32, %"struct.open_spiel::battleship::Cell" }
%"struct.open_spiel::battleship::Cell" = type { i32, i32 }

; Function Attrs: mustprogress nounwind uwtable
define linkonce_odr i64 @_ZNK10open_spiel10battleship16CellAndDirection13TopLeftCornerEv(ptr noundef nonnull align 4 dereferenceable(12) %0) #5 comdat align 2 {
  %2 = alloca %"struct.open_spiel::battleship::Cell", align 4
  %3 = alloca ptr, align 8
  store ptr %0, ptr %3, align 8
  %4 = load ptr, ptr %3, align 8
  %5 = getelementptr inbounds nuw %"class.open_spiel::battleship::CellAndDirection", ptr %4, i32 0, i32 1
  call void @llvm.memcpy.p0.p0.i64(ptr align 4 %2, ptr align 4 %5, i64 8, i1 false)
  %6 = load i64, ptr %2, align 4
  ret i64 %6
}

; Function Attrs: mustprogress uwtable
define noundef zeroext i1 @_ZNK10open_spiel10battleship13ShipPlacement14IsWithinBoundsEii(ptr noundef nonnull align 8 dereferenceable(32) %0, i32 noundef %1, i32 noundef %2) #4 align 2 {
  %4 = alloca ptr, align 8
  %5 = alloca i32, align 4
  %6 = alloca i32, align 4
  %7 = alloca %"struct.open_spiel::battleship::Cell", align 4
  %8 = alloca %"struct.open_spiel::battleship::Cell", align 4
  store ptr %0, ptr %4, align 8
  store i32 %1, ptr %5, align 4
  store i32 %2, ptr %6, align 4
  %9 = load ptr, ptr %4, align 8
  %10 = call i64 @_ZNK10open_spiel10battleship16CellAndDirection13TopLeftCornerEv(ptr noundef nonnull align 4 dereferenceable(12) %9)
  store i64 %10, ptr %7, align 4
  %11 = call i64 @_ZNK10open_spiel10battleship13ShipPlacement17BottomRightCornerEv(ptr noundef nonnull align 8 dereferenceable(32) %9)
  store i64 %11, ptr %8, align 4
  %12 = getelementptr inbounds nuw %"struct.open_spiel::battleship::Cell", ptr %7, i32 0, i32 0
  %13 = load i32, ptr %12, align 4
  %14 = icmp sge i32 %13, 0
  br i1 %14, label %15, label %49

15:                                               ; preds = %3
  %16 = getelementptr inbounds nuw %"struct.open_spiel::battleship::Cell", ptr %7, i32 0, i32 0
  %17 = load i32, ptr %16, align 4
  %18 = load i32, ptr %6, align 4
  %19 = icmp slt i32 %17, %18
  br i1 %19, label %20, label %49

20:                                               ; preds = %15
  %21 = getelementptr inbounds nuw %"struct.open_spiel::battleship::Cell", ptr %8, i32 0, i32 0
  %22 = load i32, ptr %21, align 4
  %23 = icmp sge i32 %22, 0
  br i1 %23, label %24, label %49

24:                                               ; preds = %20
  %25 = getelementptr inbounds nuw %"struct.open_spiel::battleship::Cell", ptr %8, i32 0, i32 0
  %26 = load i32, ptr %25, align 4
  %27 = load i32, ptr %6, align 4
  %28 = icmp slt i32 %26, %27
  br i1 %28, label %29, label %49

29:                                               ; preds = %24
  %30 = getelementptr inbounds nuw %"struct.open_spiel::battleship::Cell", ptr %7, i32 0, i32 1
  %31 = load i32, ptr %30, align 4
  %32 = icmp sge i32 %31, 0
  br i1 %32, label %33, label %49

33:                                               ; preds = %29
  %34 = getelementptr inbounds nuw %"struct.open_spiel::battleship::Cell", ptr %7, i32 0, i32 1
  %35 = load i32, ptr %34, align 4
  %36 = load i32, ptr %5, align 4
  %37 = icmp slt i32 %35, %36
  br i1 %37, label %38, label %49

38:                                               ; preds = %33
  %39 = getelementptr inbounds nuw %"struct.open_spiel::battleship::Cell", ptr %8, i32 0, i32 1
  %40 = load i32, ptr %39, align 4
  %41 = icmp sge i32 %40, 0
  br i1 %41, label %42, label %47

42:                                               ; preds = %38
  %43 = getelementptr inbounds nuw %"struct.open_spiel::battleship::Cell", ptr %8, i32 0, i32 1
  %44 = load i32, ptr %43, align 4
  %45 = load i32, ptr %5, align 4
  %46 = icmp slt i32 %44, %45
  br label %47

47:                                               ; preds = %42, %38
  %48 = phi i1 [ false, %38 ], [ %46, %42 ]
  br label %49

49:                                               ; preds = %47, %33, %29, %24, %20, %15, %3
  %50 = phi i1 [ false, %33 ], [ false, %29 ], [ false, %24 ], [ false, %20 ], [ false, %15 ], [ false, %3 ], [ %48, %47 ]
  ret i1 %50
}