; Function Attrs: mustprogress uwtable
define noundef zeroext i1 @_ZNK10open_spiel10battleship13ShipPlacement14IsWithinBoundsEii(ptr nocapture noundef nonnull readonly align 8 dereferenceable(32) %0, i32 noundef %1, i32 noundef %2) local_unnamed_addr #3 align 2 {
  %4 = getelementptr inbounds nuw i8, ptr %0, i64 4
  %.sroa.0.0.copyload.i = load i64, ptr %4, align 4
  %.sroa.08.0.extract.trunc = trunc i64 %.sroa.0.0.copyload.i to i32
  %.sroa.310.0.extract.shift = lshr i64 %.sroa.0.0.copyload.i, 32
  %.sroa.310.0.extract.trunc = trunc nuw i64 %.sroa.310.0.extract.shift to i32
  %5 = tail call i64 @_ZNK10open_spiel10battleship13ShipPlacement17BottomRightCornerEv(ptr noundef nonnull align 8 dereferenceable(32) %0)
  %.sroa.0.0.extract.trunc = trunc i64 %5 to i32
  %.sroa.3.0.extract.shift = lshr i64 %5, 32
  %.sroa.3.0.extract.trunc = trunc nuw i64 %.sroa.3.0.extract.shift to i32
  %6 = icmp sgt i32 %.sroa.08.0.extract.trunc, -1
  br i1 %6, label %7, label %18

7:                                                ; preds = %3
  %8 = icmp sgt i32 %2, %.sroa.08.0.extract.trunc
  %9 = icmp sgt i32 %.sroa.0.0.extract.trunc, -1
  %or.cond = select i1 %8, i1 %9, i1 false
  br i1 %or.cond, label %10, label %18

10:                                               ; preds = %7
  %11 = icmp ugt i32 %2, %.sroa.0.0.extract.trunc
  %12 = icmp sgt i64 %.sroa.0.0.copyload.i, -1
  %or.cond5 = select i1 %11, i1 %12, i1 false
  %13 = icmp sgt i32 %1, %.sroa.310.0.extract.trunc
  %or.cond16 = select i1 %or.cond5, i1 %13, i1 false
  br i1 %or.cond16, label %14, label %18

14:                                               ; preds = %10
  %15 = icmp sgt i64 %5, -1
  %16 = icmp sgt i32 %1, %.sroa.3.0.extract.trunc
  %17 = select i1 %15, i1 %16, i1 false
  br label %18

18:                                               ; preds = %14, %10, %7, %3
  %19 = phi i1 [ false, %10 ], [ false, %7 ], [ false, %3 ], [ %17, %14 ]
  ret i1 %19
}